target datalayout = "e-m:e-p270:32:32-p271:32:32-p272:64:64-i64:64-i128:128-f80:128-n8:16:32:64-S128"
target triple = "x86_64-pc-linux-gnu"

%"struct.dmlc::io::InputSplitBase::Chunk" = type { ptr, ptr, %"class.std::vector.5" }
%"class.std::vector.5" = type { %"struct.std::_Vector_base.6" }
%"struct.std::_Vector_base.6" = type { %"struct.std::_Vector_base<unsigned int, std::allocator<unsigned int>>::_Vector_impl" }
%"struct.std::_Vector_base<unsigned int, std::allocator<unsigned int>>::_Vector_impl" = type { %"struct.std::_Vector_base<unsigned int, std::allocator<unsigned int>>::_Vector_impl_data" }
%"struct.std::_Vector_base<unsigned int, std::allocator<unsigned int>>::_Vector_impl_data" = type { ptr, ptr, ptr }
%"struct.dmlc::InputSplit::Blob" = type { ptr, i64 }

; Function Attrs: mustprogress nounwind uwtable
define noundef zeroext i1 @_ZN4dmlc2io14InputSplitBase16ExtractNextChunkEPNS_10InputSplit4BlobEPNS1_5ChunkE(ptr noundef nonnull align 8 dereferenceable(200) %0, ptr noundef %1, ptr noundef %2) #6 align 2 {
  %4 = alloca i1, align 1
  %5 = alloca ptr, align 8
  %6 = alloca ptr, align 8
  %7 = alloca ptr, align 8
  store ptr %0, ptr %5, align 8, !tbaa !3
  store ptr %1, ptr %6, align 8, !tbaa !148
  store ptr %2, ptr %7, align 8, !tbaa !83
  %8 = load ptr, ptr %7, align 8, !tbaa !83
  %9 = getelementptr inbounds nuw %"struct.dmlc::io::InputSplitBase::Chunk", ptr %8, i32 0, i32 0
  %10 = load ptr, ptr %9, align 8, !tbaa !140
  %11 = load ptr, ptr %7, align 8, !tbaa !83
  %12 = getelementptr inbounds nuw %"struct.dmlc::io::InputSplitBase::Chunk", ptr %11, i32 0, i32 1
  %13 = load ptr, ptr %12, align 8, !tbaa !141
  %14 = icmp eq ptr %10, %13
  br i1 %14, label %15, label %16

15:                                               ; preds = %3
  store i1 false, ptr %4, align 1
  br label %38

16:                                               ; preds = %3
  %17 = load ptr, ptr %7, align 8, !tbaa !83
  %18 = getelementptr inbounds nuw %"struct.dmlc::io::InputSplitBase::Chunk", ptr %17, i32 0, i32 0
  %19 = load ptr, ptr %18, align 8, !tbaa !140
  %20 = load ptr, ptr %6, align 8, !tbaa !148
  %21 = getelementptr inbounds nuw %"struct.dmlc::InputSplit::Blob", ptr %20, i32 0, i32 0
  store ptr %19, ptr %21, align 8, !tbaa !150
  %22 = load ptr, ptr %7, align 8, !tbaa !83
  %23 = getelementptr inbounds nuw %"struct.dmlc::io::InputSplitBase::Chunk", ptr %22, i32 0, i32 1
  %24 = load ptr, ptr %23, align 8, !tbaa !141
  %25 = load ptr, ptr %7, align 8, !tbaa !83
  %26 = getelementptr inbounds nuw %"struct.dmlc::io::InputSplitBase::Chunk", ptr %25, i32 0, i32 0
  %27 = load ptr, ptr %26, align 8, !tbaa !140
  %28 = ptrtoint ptr %24 to i64
  %29 = ptrtoint ptr %27 to i64
  %30 = sub i64 %28, %29
  %31 = load ptr, ptr %6, align 8, !tbaa !148
  %32 = getelementptr inbounds nuw %"struct.dmlc::InputSplit::Blob", ptr %31, i32 0, i32 1
  store i64 %30, ptr %32, align 8, !tbaa !152
  %33 = load ptr, ptr %7, align 8, !tbaa !83
  %34 = getelementptr inbounds nuw %"struct.dmlc::io::InputSplitBase::Chunk", ptr %33, i32 0, i32 1
  %35 = load ptr, ptr %34, align 8, !tbaa !141
  %36 = load ptr, ptr %7, align 8, !tbaa !83
  %37 = getelementptr inbounds nuw %"struct.dmlc::io::InputSplitBase::Chunk", ptr %36, i32 0, i32 0
  store ptr %35, ptr %37, align 8, !tbaa !140
  store i1 true, ptr %4, align 1
  br label %38

38:                                               ; preds = %16, %15
  %39 = load i1, ptr %4, align 1
  ret i1 %39
}