; Function Attrs: mustprogress nofree norecurse nosync nounwind willreturn memory(argmem: readwrite) uwtable
define noundef zeroext i1 @_ZN4dmlc2io14InputSplitBase16ExtractNextChunkEPNS_10InputSplit4BlobEPNS1_5ChunkE(ptr noundef nonnull readnone align 8 captures(none) dereferenceable(200) %0, ptr noundef writeonly captures(none) %1, ptr noundef captures(none) %2) local_unnamed_addr #15 align 2 {
  %4 = load ptr, ptr %2, align 8, !tbaa !155
  %5 = getelementptr inbounds nuw i8, ptr %2, i64 8
  %6 = load ptr, ptr %5, align 8, !tbaa !156
  %7 = icmp ne ptr %4, %6
  br i1 %7, label %8, label %13

8:                                                ; preds = %3
  store ptr %4, ptr %1, align 8, !tbaa !158
  %9 = ptrtoint ptr %6 to i64
  %10 = ptrtoint ptr %4 to i64
  %11 = sub i64 %9, %10
  %12 = getelementptr inbounds nuw i8, ptr %1, i64 8
  store i64 %11, ptr %12, align 8, !tbaa !160
  store ptr %6, ptr %2, align 8, !tbaa !155
  br label %13

13:                                               ; preds = %3, %8
  ret i1 %7
}